target datalayout = "e-m:e-p270:32:32-p271:32:32-p272:64:64-i64:64-i128:128-f80:128-n8:16:32:64-S128"
target triple = "x86_64-unknown-linux-gnu"

%"class.dpx::Writer" = type { ptr, %"struct.dpx::Header", i64, ptr }
%"struct.dpx::Header" = type <{ %"struct.dpx::GenericHeader", %"struct.dpx::IndustryHeader", i8, [3 x i8] }>
%"struct.dpx::GenericHeader" = type { i32, i32, [8 x i8], i32, i32, i32, i32, i32, [100 x i8], [24 x i8], [100 x i8], [200 x i8], [200 x i8], i32, [104 x i8], i16, i16, i32, i32, [8 x %"struct.dpx::ImageElement"], [52 x i8], i32, i32, float, float, i32, i32, [100 x i8], [24 x i8], [32 x i8], [32 x i8], [4 x i16], [2 x i32], float, float, [20 x i8] }
%"struct.dpx::ImageElement" = type { i32, i32, float, i32, float, i8, i8, i8, i8, i16, i16, i32, i32, i32, [32 x i8] }
%"struct.dpx::IndustryHeader" = type { [2 x i8], [2 x i8], [2 x i8], [6 x i8], [4 x i8], [32 x i8], i32, i32, i32, float, float, [32 x i8], [100 x i8], [56 x i8], i32, i32, i8, i8, i8, i8, float, float, float, float, float, float, float, float, float, float, [76 x i8] }

; Function Attrs: mustprogress nounwind uwtable
define linkonce_odr hidden void @_ZN3dpx13GenericHeader11SetFileSizeEj(ptr noundef nonnull align 4 dereferenceable(1664) %this, i32 noundef %fs) #1 comdat align 2 {
entry:
  %this.addr = alloca ptr, align 8
  %fs.addr = alloca i32, align 4
  store ptr %this, ptr %this.addr, align 8
  store i32 %fs, ptr %fs.addr, align 4
  %this1 = load ptr, ptr %this.addr, align 8
  %0 = load i32, ptr %fs.addr, align 4
  %fileSize = getelementptr inbounds %"struct.dpx::GenericHeader", ptr %this1, i32 0, i32 3
  store i32 %0, ptr %fileSize, align 4
  ret void
}

; Function Attrs: mustprogress uwtable
define hidden noundef zeroext i1 @_ZN3dpx6Writer6FinishEv(ptr noundef nonnull align 8 dereferenceable(2080) %this) #6 align 2 {
entry:
  %this.addr = alloca ptr, align 8
  store ptr %this, ptr %this.addr, align 8
  %this1 = load ptr, ptr %this.addr, align 8
  %header = getelementptr inbounds %"class.dpx::Writer", ptr %this1, i32 0, i32 1
  %fileLoc = getelementptr inbounds %"class.dpx::Writer", ptr %this1, i32 0, i32 2
  %0 = load i64, ptr %fileLoc, align 8
  %conv = trunc i64 %0 to i32
  call void @_ZN3dpx13GenericHeader11SetFileSizeEj(ptr noundef nonnull align 4 dereferenceable(1664) %header, i32 noundef %conv)
  %header2 = getelementptr inbounds %"class.dpx::Writer", ptr %this1, i32 0, i32 1
  %fd = getelementptr inbounds %"class.dpx::Writer", ptr %this1, i32 0, i32 3
  %1 = load ptr, ptr %fd, align 8
  %call = call noundef zeroext i1 @_ZN3dpx6Header15WriteOffsetDataEP9OutStream(ptr noundef nonnull align 4 dereferenceable(2049) %header2, ptr noundef %1)
  ret i1 %call
}