; Function Attrs: mustprogress uwtable
define hidden noundef zeroext i1 @_ZN3dpx6Writer6FinishEv(ptr noundef nonnull align 8 dereferenceable(2080) %this) local_unnamed_addr #5 align 2 {
entry:
  %header = getelementptr inbounds i8, ptr %this, i64 8
  %fileLoc = getelementptr inbounds i8, ptr %this, i64 2064
  %0 = load i64, ptr %fileLoc, align 8
  %conv = trunc i64 %0 to i32
  %fileSize.i = getelementptr inbounds i8, ptr %this, i64 24
  store i32 %conv, ptr %fileSize.i, align 8
  %fd = getelementptr inbounds i8, ptr %this, i64 2072
  %1 = load ptr, ptr %fd, align 8
  %call = tail call noundef zeroext i1 @_ZN3dpx6Header15WriteOffsetDataEP9OutStream(ptr noundef nonnull align 4 dereferenceable(2049) %header, ptr noundef %1)
  ret i1 %call
}